; Function Attrs: mustprogress uwtable
define dso_local void @_ZN3net14QuicSpdyStream24OnInitialHeadersCompleteEbmRKNS_14QuicHeaderListE(ptr noundef nonnull align 8 dereferenceable(664) %this, i1 noundef zeroext %fin, i64 %0, ptr noundef nonnull align 8 dereferenceable(96) %header_list) unnamed_addr #0 align 2 personality ptr @__gxx_personality_v0 {
entry:
  %ref.tmp = alloca %"struct.net::QuicStreamFrame", align 8
  %agg.tmp = alloca %"class.base::BasicStringPiece", align 8
  %headers_decompressed_ = getelementptr inbounds i8, ptr %this, i64 400
  store i8 1, ptr %headers_decompressed_, align 8
  %header_list_ = getelementptr inbounds i8, ptr %this, i64 440
  %call = tail call noundef nonnull align 8 dereferenceable(96) ptr @_ZN3net14QuicHeaderListaSERKS0_(ptr noundef nonnull align 8 dereferenceable(96) %header_list_, ptr noundef nonnull align 8 dereferenceable(96) %header_list)
  br i1 %fin, label %if.then, label %if.end

if.then:                                          ; preds = %entry
  %id_.i = getelementptr inbounds i8, ptr %this, i64 216
  %1 = load i32, ptr %id_.i, align 8
  call void @_ZN4base16BasicStringPieceINSt7__cxx1112basic_stringIcSt11char_traitsIcESaIcEEEEC1Ev(ptr noundef nonnull align 8 dereferenceable(16) %agg.tmp)
  %2 = load ptr, ptr %agg.tmp, align 8
  %3 = getelementptr inbounds i8, ptr %agg.tmp, i64 8
  %4 = load i64, ptr %3, align 8
  call void @_ZN3net15QuicStreamFrameC1EjbmN4base16BasicStringPieceINSt7__cxx1112basic_stringIcSt11char_traitsIcESaIcEEEEE(ptr noundef nonnull align 8 dereferenceable(40) %ref.tmp, i32 noundef %1, i1 noundef zeroext true, i64 noundef 0, ptr %2, i64 %4)
  %vtable = load ptr, ptr %this, align 8
  %vfn = getelementptr inbounds i8, ptr %vtable, i64 16
  %5 = load ptr, ptr %vfn, align 8
  invoke void %5(ptr noundef nonnull align 8 dereferenceable(377) %this, ptr noundef nonnull align 8 dereferenceable(40) %ref.tmp)
          to label %invoke.cont unwind label %lpad

invoke.cont:                                      ; preds = %if.then
  call void @_ZN3net15QuicStreamFrameD1Ev(ptr noundef nonnull align 8 dereferenceable(40) %ref.tmp) #12
  br label %if.end

lpad:                                             ; preds = %if.then
  %6 = landingpad { ptr, i32 }
          cleanup
  call void @_ZN3net15QuicStreamFrameD1Ev(ptr noundef nonnull align 8 dereferenceable(40) %ref.tmp) #12
  resume { ptr, i32 } %6

if.end:                                           ; preds = %invoke.cont, %entry
  %7 = load i8, ptr %headers_decompressed_, align 8
  %8 = and i8 %7, 1
  %tobool.not.i = icmp eq i8 %8, 0
  br i1 %tobool.not.i, label %if.end7, label %land.lhs.true.i

land.lhs.true.i:                                  ; preds = %if.end
  %decompressed_headers_.i = getelementptr inbounds i8, ptr %this, i64 408
  %call.i = call noundef zeroext i1 @_ZNKSt7__cxx1112basic_stringIcSt11char_traitsIcESaIcEE5emptyEv(ptr noundef nonnull align 8 dereferenceable(32) %decompressed_headers_.i) #12
  br i1 %call.i, label %_ZNK3net14QuicSpdyStream22FinishedReadingHeadersEv.exit, label %if.end7

_ZNK3net14QuicSpdyStream22FinishedReadingHeadersEv.exit: ; preds = %land.lhs.true.i
  %_M_finish.i.i.i = getelementptr inbounds i8, ptr %this, i64 496
  %_M_start.i.i.i = getelementptr inbounds i8, ptr %this, i64 464
  %9 = load ptr, ptr %_M_finish.i.i.i, align 8
  %10 = load ptr, ptr %_M_start.i.i.i, align 8
  %cmp.i.i.i.i = icmp eq ptr %9, %10
  br i1 %cmp.i.i.i.i, label %if.then5, label %if.end7

if.then5:                                         ; preds = %_ZNK3net14QuicSpdyStream22FinishedReadingHeadersEv.exit
  %sequencer_.i = getelementptr inbounds i8, ptr %this, i64 40
  call void @_ZN3net19QuicStreamSequencer12SetUnblockedEv(ptr noundef nonnull align 8 dereferenceable(169) %sequencer_.i)
  br label %if.end7

if.end7:                                          ; preds = %if.end, %land.lhs.true.i, %if.then5, %_ZNK3net14QuicSpdyStream22FinishedReadingHeadersEv.exit
  ret void
}